; Function Attrs: mustprogress nofree norecurse nosync nounwind willreturn memory(write, argmem: readwrite, inaccessiblemem: none) uwtable
define internal fastcc void @stbtt__csctx_rline_to(ptr noundef nonnull captures(none) %0, float noundef %1, float noundef %2) unnamed_addr #36 {
  %4 = getelementptr inbounds nuw i8, ptr %0, i64 16
  %5 = load float, ptr %4, align 8
  %6 = fadd float %1, %5
  store float %6, ptr %4, align 8
  %7 = getelementptr inbounds nuw i8, ptr %0, i64 20
  %8 = load float, ptr %7, align 4
  %9 = fadd float %2, %8
  store float %9, ptr %7, align 4
  %10 = fptosi float %6 to i32
  %11 = fptosi float %9 to i32
  %12 = load i32, ptr %0, align 8
  %.not.i = icmp eq i32 %12, 0
  br i1 %.not.i, label %46, label %13

13:                                               ; preds = %3
  %14 = getelementptr inbounds nuw i8, ptr %0, i64 28
  %15 = load i32, ptr %14, align 4
  %16 = icmp slt i32 %15, %10
  br i1 %16, label %20, label %17

17:                                               ; preds = %13
  %18 = getelementptr inbounds nuw i8, ptr %0, i64 4
  %19 = load i32, ptr %18, align 4
  %.not.i.i = icmp eq i32 %19, 0
  br i1 %.not.i.i, label %20, label %21

20:                                               ; preds = %17, %13
  store i32 %10, ptr %14, align 4
  br label %21

21:                                               ; preds = %20, %17
  %22 = getelementptr inbounds nuw i8, ptr %0, i64 36
  %23 = load i32, ptr %22, align 4
  %24 = icmp slt i32 %23, %11
  br i1 %24, label %28, label %25

25:                                               ; preds = %21
  %26 = getelementptr inbounds nuw i8, ptr %0, i64 4
  %27 = load i32, ptr %26, align 4
  %.not20.i.i = icmp eq i32 %27, 0
  br i1 %.not20.i.i, label %28, label %29

28:                                               ; preds = %25, %21
  store i32 %11, ptr %22, align 4
  br label %29

29:                                               ; preds = %28, %25
  %30 = getelementptr inbounds nuw i8, ptr %0, i64 24
  %31 = load i32, ptr %30, align 8
  %32 = icmp sgt i32 %31, %10
  br i1 %32, label %36, label %33

33:                                               ; preds = %29
  %34 = getelementptr inbounds nuw i8, ptr %0, i64 4
  %35 = load i32, ptr %34, align 4
  %.not21.i.i = icmp eq i32 %35, 0
  br i1 %.not21.i.i, label %36, label %37

36:                                               ; preds = %33, %29
  store i32 %10, ptr %30, align 8
  br label %37

37:                                               ; preds = %36, %33
  %38 = getelementptr inbounds nuw i8, ptr %0, i64 32
  %39 = load i32, ptr %38, align 8
  %40 = icmp sgt i32 %39, %11
  br i1 %40, label %44, label %41

41:                                               ; preds = %37
  %42 = getelementptr inbounds nuw i8, ptr %0, i64 4
  %43 = load i32, ptr %42, align 4
  %.not22.i.i = icmp eq i32 %43, 0
  br i1 %.not22.i.i, label %44, label %stbtt__track_vertex.exit.i

44:                                               ; preds = %41, %37
  store i32 %11, ptr %38, align 8
  br label %stbtt__track_vertex.exit.i

stbtt__track_vertex.exit.i:                       ; preds = %44, %41
  %45 = getelementptr inbounds nuw i8, ptr %0, i64 4
  store i32 1, ptr %45, align 4
  br label %stbtt__csctx_v.exit

46:                                               ; preds = %3
  %47 = getelementptr inbounds nuw i8, ptr %0, i64 40
  %48 = load ptr, ptr %47, align 8
  %49 = getelementptr inbounds nuw i8, ptr %0, i64 48
  %50 = load i32, ptr %49, align 8
  %51 = sext i32 %50 to i64
  %52 = getelementptr inbounds %struct.stbtt_vertex, ptr %48, i64 %51
  %53 = getelementptr inbounds nuw i8, ptr %52, i64 12
  store i8 2, ptr %53, align 2
  %54 = trunc i32 %10 to i16
  store i16 %54, ptr %52, align 2
  %55 = trunc i32 %11 to i16
  %56 = getelementptr inbounds nuw i8, ptr %52, i64 2
  store i16 %55, ptr %56, align 2
  %57 = getelementptr inbounds nuw i8, ptr %52, i64 4
  store i16 0, ptr %57, align 2
  %58 = getelementptr inbounds nuw i8, ptr %52, i64 6
  store i16 0, ptr %58, align 2
  %59 = load ptr, ptr %47, align 8
  %60 = load i32, ptr %49, align 8
  %61 = sext i32 %60 to i64
  %62 = getelementptr inbounds %struct.stbtt_vertex, ptr %59, i64 %61, i32 4
  store i16 0, ptr %62, align 2
  %63 = load ptr, ptr %47, align 8
  %64 = load i32, ptr %49, align 8
  %65 = sext i32 %64 to i64
  %66 = getelementptr inbounds %struct.stbtt_vertex, ptr %63, i64 %65, i32 5
  store i16 0, ptr %66, align 2
  br label %stbtt__csctx_v.exit

stbtt__csctx_v.exit:                              ; preds = %stbtt__track_vertex.exit.i, %46
  %67 = getelementptr inbounds nuw i8, ptr %0, i64 48
  %68 = load i32, ptr %67, align 8
  %69 = add nsw i32 %68, 1
  store i32 %69, ptr %67, align 8
  ret void
}